; Function Attrs: mustprogress uwtable
define void @_ZN6duckdb17ArrayColumnWriter7AnalyzeERNS_17ColumnWriterStateEPS1_RNS_6VectorEm(ptr noundef nonnull align 8 dereferenceable(80) %0, ptr noundef nonnull align 8 dereferenceable(112) %1, ptr readnone captures(none) %2, ptr noundef nonnull align 8 dereferenceable(104) %3, i64 noundef %4) unnamed_addr #0 align 2 {
  %6 = tail call noundef nonnull align 8 dereferenceable(104) ptr @_ZN6duckdb11ArrayVector8GetEntryERNS_6VectorE(ptr noundef nonnull align 8 dereferenceable(104) %3)
  %7 = getelementptr inbounds nuw i8, ptr %3, i64 8
  %8 = tail call noundef i64 @_ZN6duckdb9ArrayType7GetSizeERKNS_11LogicalTypeE(ptr noundef nonnull align 8 dereferenceable(24) %7)
  %9 = getelementptr inbounds nuw i8, ptr %0, i64 72
  %10 = tail call noundef ptr @_ZNK6duckdb10unique_ptrINS_12ColumnWriterESt14default_deleteIS1_ELb1EEptEv(ptr noundef nonnull align 8 dereferenceable(8) %9)
  %11 = getelementptr inbounds nuw i8, ptr %1, i64 128
  %12 = tail call noundef nonnull align 8 dereferenceable(112) ptr @_ZNK6duckdb10unique_ptrINS_17ColumnWriterStateESt14default_deleteIS1_ELb1EEdeEv(ptr noundef nonnull align 8 dereferenceable(8) %11)
  %13 = mul i64 %8, %4
  %14 = load ptr, ptr %10, align 8, !tbaa !3
  %15 = getelementptr inbounds nuw i8, ptr %14, i64 32
  %16 = load ptr, ptr %15, align 8
  tail call void %16(ptr noundef nonnull align 8 dereferenceable(65) %10, ptr noundef nonnull align 8 dereferenceable(112) %12, ptr noundef nonnull %1, ptr noundef nonnull align 8 dereferenceable(104) %6, i64 noundef %13)
  ret void
}